target datalayout = "e-m:e-p270:32:32-p271:32:32-p272:64:64-i64:64-i128:128-f80:128-n8:16:32:64-S128"
target triple = "x86_64-pc-linux-gnu"

%struct.ossl_record_layer_st = type { ptr, ptr, i32, i32, i32, i32, i32, ptr, i16, ptr, ptr, ptr, i64, i32, [33 x %struct.tls_buffer_st], i64, i64, %struct.tls_buffer_st, [32 x %struct.tls_rl_record_st], i64, i64, i64, i32, ptr, i64, [8 x i8], i32, i32, i64, i32, ptr, ptr, i64, ptr, ptr, i32, i32, i32, i64, i64, i64, [64 x i8], i32, i32, i32, ptr, ptr, i32, i32, i64, ptr, ptr, %struct.dtls_bitmap_st, %struct.dtls_bitmap_st, i32, ptr, ptr, ptr, ptr, ptr, i64, ptr }
%struct.tls_buffer_st = type { ptr, i64, i64, i64, i64, i32, i32 }
%struct.tls_rl_record_st = type { i32, i32, i64, i64, i64, ptr, ptr, ptr, i16, [8 x i8] }
%struct.dtls_bitmap_st = type { i64, [8 x i8] }
%struct.pitem_st = type { [8 x i8], ptr, ptr }
%struct.dtls_rlayer_record_data_st = type { ptr, i64, %struct.tls_buffer_st, %struct.tls_rl_record_st }

@.str = private unnamed_addr constant [42 x i8] c"../openssl/ssl/record/methods/dtls_meth.c\00", align 1

; Function Attrs: nounwind uwtable
define internal i32 @dtls_free(ptr noundef %0) #0 {
  %2 = alloca ptr, align 8
  %3 = alloca ptr, align 8
  %4 = alloca i64, align 8
  %5 = alloca i64, align 8
  %6 = alloca ptr, align 8
  %7 = alloca ptr, align 8
  %8 = alloca i32, align 4
  store ptr %0, ptr %2, align 8, !tbaa !3
  call void @llvm.lifetime.start.p0(i64 8, ptr %3) #6
  call void @llvm.lifetime.start.p0(i64 8, ptr %4) #6
  call void @llvm.lifetime.start.p0(i64 8, ptr %5) #6
  call void @llvm.lifetime.start.p0(i64 8, ptr %6) #6
  call void @llvm.lifetime.start.p0(i64 8, ptr %7) #6
  call void @llvm.lifetime.start.p0(i64 4, ptr %8) #6
  store i32 1, ptr %8, align 4, !tbaa !38
  %9 = load ptr, ptr %2, align 8, !tbaa !3
  %10 = getelementptr inbounds nuw %struct.ossl_record_layer_st, ptr %9, i32 0, i32 17
  store ptr %10, ptr %3, align 8, !tbaa !115
  %11 = load ptr, ptr %3, align 8, !tbaa !115
  %12 = getelementptr inbounds nuw %struct.tls_buffer_st, ptr %11, i32 0, i32 4
  %13 = load i64, ptr %12, align 8, !tbaa !117
  store i64 %13, ptr %4, align 8, !tbaa !51
  %14 = load i64, ptr %4, align 8, !tbaa !51
  %15 = icmp ugt i64 %14, 0
  br i1 %15, label %16, label %31

16:                                               ; preds = %1
  %17 = load ptr, ptr %2, align 8, !tbaa !3
  %18 = getelementptr inbounds nuw %struct.ossl_record_layer_st, ptr %17, i32 0, i32 11
  %19 = load ptr, ptr %18, align 8, !tbaa !118
  %20 = load ptr, ptr %3, align 8, !tbaa !115
  %21 = getelementptr inbounds nuw %struct.tls_buffer_st, ptr %20, i32 0, i32 0
  %22 = load ptr, ptr %21, align 8, !tbaa !119
  %23 = load ptr, ptr %3, align 8, !tbaa !115
  %24 = getelementptr inbounds nuw %struct.tls_buffer_st, ptr %23, i32 0, i32 3
  %25 = load i64, ptr %24, align 8, !tbaa !120
  %26 = getelementptr inbounds nuw i8, ptr %22, i64 %25
  %27 = load i64, ptr %4, align 8, !tbaa !51
  %28 = call i32 @BIO_write_ex(ptr noundef %19, ptr noundef %26, i64 noundef %27, ptr noundef %5)
  store i32 %28, ptr %8, align 4, !tbaa !38
  %29 = load ptr, ptr %3, align 8, !tbaa !115
  %30 = getelementptr inbounds nuw %struct.tls_buffer_st, ptr %29, i32 0, i32 4
  store i64 0, ptr %30, align 8, !tbaa !117
  br label %31

31:                                               ; preds = %16, %1
  %32 = load ptr, ptr %2, align 8, !tbaa !3
  %33 = getelementptr inbounds nuw %struct.ossl_record_layer_st, ptr %32, i32 0, i32 50
  %34 = load ptr, ptr %33, align 8, !tbaa !56
  %35 = icmp ne ptr %34, null
  br i1 %35, label %36, label %71

36:                                               ; preds = %31
  br label %37

37:                                               ; preds = %43, %36
  %38 = load ptr, ptr %2, align 8, !tbaa !3
  %39 = getelementptr inbounds nuw %struct.ossl_record_layer_st, ptr %38, i32 0, i32 50
  %40 = load ptr, ptr %39, align 8, !tbaa !56
  %41 = call ptr @pqueue_pop(ptr noundef %40)
  store ptr %41, ptr %6, align 8, !tbaa !59
  %42 = icmp ne ptr %41, null
  br i1 %42, label %43, label %67

43:                                               ; preds = %37
  %44 = load ptr, ptr %6, align 8, !tbaa !59
  %45 = getelementptr inbounds nuw %struct.pitem_st, ptr %44, i32 0, i32 1
  %46 = load ptr, ptr %45, align 8, !tbaa !61
  store ptr %46, ptr %7, align 8, !tbaa !67
  %47 = load ptr, ptr %2, align 8, !tbaa !3
  %48 = getelementptr inbounds nuw %struct.ossl_record_layer_st, ptr %47, i32 0, i32 11
  %49 = load ptr, ptr %48, align 8, !tbaa !118
  %50 = load ptr, ptr %7, align 8, !tbaa !67
  %51 = getelementptr inbounds nuw %struct.dtls_rlayer_record_data_st, ptr %50, i32 0, i32 0
  %52 = load ptr, ptr %51, align 8, !tbaa !69
  %53 = load ptr, ptr %7, align 8, !tbaa !67
  %54 = getelementptr inbounds nuw %struct.dtls_rlayer_record_data_st, ptr %53, i32 0, i32 1
  %55 = load i64, ptr %54, align 8, !tbaa !71
  %56 = call i32 @BIO_write_ex(ptr noundef %49, ptr noundef %52, i64 noundef %55, ptr noundef %5)
  %57 = load i32, ptr %8, align 4, !tbaa !38
  %58 = and i32 %57, %56
  store i32 %58, ptr %8, align 4, !tbaa !38
  %59 = load ptr, ptr %7, align 8, !tbaa !67
  %60 = getelementptr inbounds nuw %struct.dtls_rlayer_record_data_st, ptr %59, i32 0, i32 2
  %61 = getelementptr inbounds nuw %struct.tls_buffer_st, ptr %60, i32 0, i32 0
  %62 = load ptr, ptr %61, align 8, !tbaa !72
  call void @CRYPTO_free(ptr noundef %62, ptr noundef @.str, i32 noundef 604)
  %63 = load ptr, ptr %6, align 8, !tbaa !59
  %64 = getelementptr inbounds nuw %struct.pitem_st, ptr %63, i32 0, i32 1
  %65 = load ptr, ptr %64, align 8, !tbaa !61
  call void @CRYPTO_free(ptr noundef %65, ptr noundef @.str, i32 noundef 605)
  %66 = load ptr, ptr %6, align 8, !tbaa !59
  call void @pitem_free(ptr noundef %66)
  br label %37, !llvm.loop !121

67:                                               ; preds = %37
  %68 = load ptr, ptr %2, align 8, !tbaa !3
  %69 = getelementptr inbounds nuw %struct.ossl_record_layer_st, ptr %68, i32 0, i32 50
  %70 = load ptr, ptr %69, align 8, !tbaa !56
  call void @pqueue_free(ptr noundef %70)
  br label %71

71:                                               ; preds = %67, %31
  %72 = load ptr, ptr %2, align 8, !tbaa !3
  %73 = getelementptr inbounds nuw %struct.ossl_record_layer_st, ptr %72, i32 0, i32 51
  %74 = load ptr, ptr %73, align 8, !tbaa !31
  %75 = icmp ne ptr %74, null
  br i1 %75, label %76, label %99

76:                                               ; preds = %71
  br label %77

77:                                               ; preds = %83, %76
  %78 = load ptr, ptr %2, align 8, !tbaa !3
  %79 = getelementptr inbounds nuw %struct.ossl_record_layer_st, ptr %78, i32 0, i32 51
  %80 = load ptr, ptr %79, align 8, !tbaa !31
  %81 = call ptr @pqueue_pop(ptr noundef %80)
  store ptr %81, ptr %6, align 8, !tbaa !59
  %82 = icmp ne ptr %81, null
  br i1 %82, label %83, label %95

83:                                               ; preds = %77
  %84 = load ptr, ptr %6, align 8, !tbaa !59
  %85 = getelementptr inbounds nuw %struct.pitem_st, ptr %84, i32 0, i32 1
  %86 = load ptr, ptr %85, align 8, !tbaa !61
  store ptr %86, ptr %7, align 8, !tbaa !67
  %87 = load ptr, ptr %7, align 8, !tbaa !67
  %88 = getelementptr inbounds nuw %struct.dtls_rlayer_record_data_st, ptr %87, i32 0, i32 2
  %89 = getelementptr inbounds nuw %struct.tls_buffer_st, ptr %88, i32 0, i32 0
  %90 = load ptr, ptr %89, align 8, !tbaa !72
  call void @CRYPTO_free(ptr noundef %90, ptr noundef @.str, i32 noundef 614)
  %91 = load ptr, ptr %6, align 8, !tbaa !59
  %92 = getelementptr inbounds nuw %struct.pitem_st, ptr %91, i32 0, i32 1
  %93 = load ptr, ptr %92, align 8, !tbaa !61
  call void @CRYPTO_free(ptr noundef %93, ptr noundef @.str, i32 noundef 615)
  %94 = load ptr, ptr %6, align 8, !tbaa !59
  call void @pitem_free(ptr noundef %94)
  br label %77, !llvm.loop !123

95:                                               ; preds = %77
  %96 = load ptr, ptr %2, align 8, !tbaa !3
  %97 = getelementptr inbounds nuw %struct.ossl_record_layer_st, ptr %96, i32 0, i32 51
  %98 = load ptr, ptr %97, align 8, !tbaa !31
  call void @pqueue_free(ptr noundef %98)
  br label %99

99:                                               ; preds = %95, %71
  %100 = load ptr, ptr %2, align 8, !tbaa !3
  %101 = call i32 @tls_free(ptr noundef %100)
  %102 = icmp ne i32 %101, 0
  br i1 %102, label %103, label %106

103:                                              ; preds = %99
  %104 = load i32, ptr %8, align 4, !tbaa !38
  %105 = icmp ne i32 %104, 0
  br label %106

106:                                              ; preds = %103, %99
  %107 = phi i1 [ false, %99 ], [ %105, %103 ]
  %108 = zext i1 %107 to i32
  call void @llvm.lifetime.end.p0(i64 4, ptr %8) #6
  call void @llvm.lifetime.end.p0(i64 8, ptr %7) #6
  call void @llvm.lifetime.end.p0(i64 8, ptr %6) #6
  call void @llvm.lifetime.end.p0(i64 8, ptr %5) #6
  call void @llvm.lifetime.end.p0(i64 8, ptr %4) #6
  call void @llvm.lifetime.end.p0(i64 8, ptr %3) #6
  ret i32 %108
}