; Function Attrs: nounwind uwtable
define internal range(i32 0, 2) i32 @dtls_free(ptr noundef %0) #0 {
  %2 = alloca i64, align 8
  call void @llvm.lifetime.start.p0(i64 8, ptr nonnull %2) #7
  %3 = getelementptr inbounds nuw i8, ptr %0, i64 1728
  %4 = load i64, ptr %3, align 8, !tbaa !79
  %.not = icmp eq i64 %4, 0
  br i1 %.not, label %14, label %5

5:                                                ; preds = %1
  %6 = getelementptr inbounds nuw i8, ptr %0, i64 1696
  %7 = getelementptr inbounds nuw i8, ptr %0, i64 72
  %8 = load ptr, ptr %7, align 8, !tbaa !80
  %9 = load ptr, ptr %6, align 8, !tbaa !81
  %10 = getelementptr inbounds nuw i8, ptr %0, i64 1720
  %11 = load i64, ptr %10, align 8, !tbaa !82
  %12 = getelementptr inbounds nuw i8, ptr %9, i64 %11
  %13 = call i32 @BIO_write_ex(ptr noundef %8, ptr noundef %12, i64 noundef %4, ptr noundef nonnull %2) #7
  store i64 0, ptr %3, align 8, !tbaa !79
  br label %14

14:                                               ; preds = %5, %1
  %.0 = phi i32 [ %13, %5 ], [ 1, %1 ]
  %15 = getelementptr inbounds nuw i8, ptr %0, i64 4320
  %16 = load ptr, ptr %15, align 8, !tbaa !53
  %.not30 = icmp eq ptr %16, null
  br i1 %.not30, label %35, label %.preheader34

.preheader34:                                     ; preds = %14
  %17 = call ptr @pqueue_pop(ptr noundef nonnull %16) #7
  %.not3135 = icmp eq ptr %17, null
  br i1 %.not3135, label %._crit_edge, label %.lr.ph

.lr.ph:                                           ; preds = %.preheader34
  %18 = getelementptr inbounds nuw i8, ptr %0, i64 72
  br label %19

19:                                               ; preds = %.lr.ph, %19
  %20 = phi ptr [ %17, %.lr.ph ], [ %33, %19 ]
  %.236 = phi i32 [ %.0, %.lr.ph ], [ %28, %19 ]
  %21 = getelementptr inbounds nuw i8, ptr %20, i64 8
  %22 = load ptr, ptr %21, align 8, !tbaa !24
  %23 = load ptr, ptr %18, align 8, !tbaa !80
  %24 = load ptr, ptr %22, align 8, !tbaa !27
  %25 = getelementptr inbounds nuw i8, ptr %22, i64 8
  %26 = load i64, ptr %25, align 8, !tbaa !31
  %27 = call i32 @BIO_write_ex(ptr noundef %23, ptr noundef %24, i64 noundef %26, ptr noundef nonnull %2) #7
  %28 = and i32 %27, %.236
  %29 = getelementptr inbounds nuw i8, ptr %22, i64 16
  %30 = load ptr, ptr %29, align 8, !tbaa !54
  call void @CRYPTO_free(ptr noundef %30, ptr noundef nonnull @.str, i32 noundef 604) #7
  %31 = load ptr, ptr %21, align 8, !tbaa !24
  call void @CRYPTO_free(ptr noundef %31, ptr noundef nonnull @.str, i32 noundef 605) #7
  call void @pitem_free(ptr noundef nonnull %20) #7
  %32 = load ptr, ptr %15, align 8, !tbaa !53
  %33 = call ptr @pqueue_pop(ptr noundef %32) #7
  %.not31 = icmp eq ptr %33, null
  br i1 %.not31, label %._crit_edge, label %19, !llvm.loop !83

._crit_edge:                                      ; preds = %19, %.preheader34
  %.2.lcssa = phi i32 [ %.0, %.preheader34 ], [ %28, %19 ]
  %34 = load ptr, ptr %15, align 8, !tbaa !53
  call void @pqueue_free(ptr noundef %34) #7
  br label %35

35:                                               ; preds = %._crit_edge, %14
  %.1 = phi i32 [ %.2.lcssa, %._crit_edge ], [ %.0, %14 ]
  %36 = getelementptr inbounds nuw i8, ptr %0, i64 4328
  %37 = load ptr, ptr %36, align 8, !tbaa !23
  %.not32 = icmp eq ptr %37, null
  br i1 %.not32, label %48, label %.preheader

.preheader:                                       ; preds = %35
  %38 = call ptr @pqueue_pop(ptr noundef nonnull %37) #7
  %.not3337 = icmp eq ptr %38, null
  br i1 %.not3337, label %._crit_edge39, label %.lr.ph38

.lr.ph38:                                         ; preds = %.preheader, %.lr.ph38
  %39 = phi ptr [ %46, %.lr.ph38 ], [ %38, %.preheader ]
  %40 = getelementptr inbounds nuw i8, ptr %39, i64 8
  %41 = load ptr, ptr %40, align 8, !tbaa !24
  %42 = getelementptr inbounds nuw i8, ptr %41, i64 16
  %43 = load ptr, ptr %42, align 8, !tbaa !54
  call void @CRYPTO_free(ptr noundef %43, ptr noundef nonnull @.str, i32 noundef 614) #7
  %44 = load ptr, ptr %40, align 8, !tbaa !24
  call void @CRYPTO_free(ptr noundef %44, ptr noundef nonnull @.str, i32 noundef 615) #7
  call void @pitem_free(ptr noundef nonnull %39) #7
  %45 = load ptr, ptr %36, align 8, !tbaa !23
  %46 = call ptr @pqueue_pop(ptr noundef %45) #7
  %.not33 = icmp eq ptr %46, null
  br i1 %.not33, label %._crit_edge39, label %.lr.ph38, !llvm.loop !85

._crit_edge39:                                    ; preds = %.lr.ph38, %.preheader
  %47 = load ptr, ptr %36, align 8, !tbaa !23
  call void @pqueue_free(ptr noundef %47) #7
  br label %48

48:                                               ; preds = %._crit_edge39, %35
  %49 = call i32 @tls_free(ptr noundef nonnull %0) #7
  %50 = icmp ne i32 %49, 0
  %51 = icmp ne i32 %.1, 0
  %52 = select i1 %50, i1 %51, i1 false
  %53 = zext i1 %52 to i32
  call void @llvm.lifetime.end.p0(i64 8, ptr nonnull %2) #7
  ret i32 %53
}